target datalayout = "e-m:e-p270:32:32-p271:32:32-p272:64:64-i64:64-i128:128-f80:128-n8:16:32:64-S128"
target triple = "x86_64-pc-linux-gnu"

%struct._ir_array = type { ptr, i32 }
%struct._ir_list = type { %struct._ir_array, i32 }

; Function Attrs: nounwind uwtable
define hidden void @ir_list_remove(ptr noundef %0, i32 noundef %1) #0 {
  %3 = alloca ptr, align 8
  %4 = alloca i32, align 4
  store ptr %0, ptr %3, align 8
  store i32 %1, ptr %4, align 4
  %5 = load ptr, ptr %3, align 8
  %6 = getelementptr inbounds %struct._ir_list, ptr %5, i32 0, i32 0
  %7 = getelementptr inbounds %struct._ir_array, ptr %6, i32 0, i32 0
  %8 = load ptr, ptr %7, align 8
  %9 = load i32, ptr %4, align 4
  %10 = zext i32 %9 to i64
  %11 = getelementptr inbounds i32, ptr %8, i64 %10
  %12 = load ptr, ptr %3, align 8
  %13 = getelementptr inbounds %struct._ir_list, ptr %12, i32 0, i32 0
  %14 = getelementptr inbounds %struct._ir_array, ptr %13, i32 0, i32 0
  %15 = load ptr, ptr %14, align 8
  %16 = load i32, ptr %4, align 4
  %17 = zext i32 %16 to i64
  %18 = getelementptr inbounds i32, ptr %15, i64 %17
  %19 = getelementptr inbounds i32, ptr %18, i64 1
  %20 = load ptr, ptr %3, align 8
  %21 = getelementptr inbounds %struct._ir_list, ptr %20, i32 0, i32 1
  %22 = load i32, ptr %21, align 8
  %23 = load i32, ptr %4, align 4
  %24 = sub i32 %22, %23
  %25 = zext i32 %24 to i64
  %26 = mul i64 %25, 4
  call void @llvm.memmove.p0.p0.i64(ptr align 4 %11, ptr align 4 %19, i64 %26, i1 false)
  %27 = load ptr, ptr %3, align 8
  %28 = getelementptr inbounds %struct._ir_list, ptr %27, i32 0, i32 1
  %29 = load i32, ptr %28, align 8
  %30 = add i32 %29, -1
  store i32 %30, ptr %28, align 8
  ret void
}