; Function Attrs: mustprogress nofree norecurse nosync nounwind willreturn memory(readwrite, inaccessiblemem: none) uwtable
define hidden void @ir_list_remove(ptr nocapture noundef %0, i32 noundef %1) local_unnamed_addr #15 {
  %3 = load ptr, ptr %0, align 8
  %4 = zext i32 %1 to i64
  %5 = getelementptr inbounds i32, ptr %3, i64 %4
  %6 = getelementptr inbounds i8, ptr %5, i64 4
  %7 = getelementptr inbounds i8, ptr %0, i64 16
  %8 = load i32, ptr %7, align 8
  %9 = sub i32 %8, %1
  %10 = zext i32 %9 to i64
  %11 = shl nuw nsw i64 %10, 2
  tail call void @llvm.memmove.p0.p0.i64(ptr align 4 %5, ptr nonnull align 4 %6, i64 %11, i1 false)
  %12 = load i32, ptr %7, align 8
  %13 = add i32 %12, -1
  store i32 %13, ptr %7, align 8
  ret void
}